target datalayout = "e-m:e-p270:32:32-p271:32:32-p272:64:64-i64:64-i128:128-f80:128-n8:16:32:64-S128"
target triple = "x86_64-unknown-linux-gnu"

%union.pthread_mutex_t = type { %struct.__pthread_mutex_s }
%struct.__pthread_mutex_s = type { i32, i32, i32, i32, i32, i16, i16, %struct.__pthread_internal_list }
%struct.__pthread_internal_list = type { ptr, ptr }
%struct.QTailQLink = type { ptr, ptr }
%struct.QemuMutex = type { %union.pthread_mutex_t, i8 }
%struct.CPUState = type { %struct.DeviceState, ptr, i32, i32, ptr, i32, i8, i8, ptr, i8, i8, i8, i8, i8, i8, i8, i8, i32, i32, i32, i32, i64, i64, i64, [1 x %struct.__jmp_buf_tag], %struct.QemuMutex, %struct.anon.5, ptr, i32, ptr, ptr, ptr, ptr, i32, i32, %union.anon.6, %union.anon.7, %union.anon.8, ptr, ptr, i64, i32, ptr, ptr, ptr, i32, i64, i32, %struct.QemuLockCnt, [1 x i64], ptr, i32, i32, i32, i32, i32, ptr, i8, i8, i64, i8, i8, ptr, [8 x i8], [0 x i8], %struct.CPUNegativeOffsetState }
%struct.DeviceState = type { %struct.Object, ptr, ptr, i8, i8, i64, ptr, i32, i8, ptr, %struct.NamedGPIOListHead, %struct.NamedClockListHead, %struct.BusStateHead, i32, i32, i32, %struct.ResettableState, ptr, %struct.MemReentrancyGuard }
%struct.Object = type { ptr, ptr, ptr, i32, ptr }
%struct.NamedGPIOListHead = type { ptr }
%struct.NamedClockListHead = type { ptr }
%struct.BusStateHead = type { ptr }
%struct.ResettableState = type { i32, i8, i8 }
%struct.MemReentrancyGuard = type { i8 }
%struct.__jmp_buf_tag = type { [8 x i64], i32, %struct.__sigset_t }
%struct.__sigset_t = type { [16 x i64] }
%struct.anon.5 = type { ptr, ptr }
%union.anon.6 = type { %struct.QTailQLink }
%union.anon.7 = type { %struct.QTailQLink }
%union.anon.8 = type { %struct.QTailQLink }
%struct.QemuLockCnt = type { i32 }
%struct.CPUNegativeOffsetState = type { %struct.CPUTLB, %union.IcountDecr, i8, [11 x i8] }
%struct.CPUTLB = type { %struct.CPUTLBCommon, [16 x %struct.CPUTLBDesc], [16 x %struct.CPUTLBDescFast] }
%struct.CPUTLBCommon = type { %struct.QemuSpin, i16, i64, i64, i64 }
%struct.QemuSpin = type { i32 }
%struct.CPUTLBDesc = type { i64, i64, i64, i64, i64, i64, [8 x %union.CPUTLBEntry], [8 x %struct.CPUTLBEntryFull], ptr }
%union.CPUTLBEntry = type { %struct.anon.9 }
%struct.anon.9 = type { i64, i64, i64, i64 }
%struct.CPUTLBEntryFull = type { i64, i64, %struct.MemTxAttrs, i8, i8, [3 x i8], %union.anon.10 }
%struct.MemTxAttrs = type { i32 }
%union.anon.10 = type { %struct.anon.11 }
%struct.anon.11 = type { i8, i8, i8 }
%struct.CPUTLBDescFast = type { i64, ptr }
%union.IcountDecr = type { i32 }
%struct.TaskState = type { i32, i32, i64, i64, i64, i64, i32, ptr, ptr, %struct.emulated_sigtable, [64 x %struct.emulated_sigtable], %struct.__sigset_t, %struct.__sigset_t, i32, i32, %struct.target_sigaltstack, i64 }
%struct.emulated_sigtable = type { i32, %struct.target_siginfo }
%struct.target_siginfo = type { i32, i32, i32, %union.anon }
%union.anon = type { %struct.anon.2, [80 x i8] }
%struct.anon.2 = type { i32, i32, i32, i64, i64 }
%struct.target_sigaltstack = type { i64, i32, i64 }
%struct.linux_binprm = type { [1024 x i8], %struct.ImageSource, i64, i32, i32, i32, i32, ptr, ptr, ptr, ptr, [8 x i8] }
%struct.ImageSource = type { ptr, i32, i32 }

; Function Attrs: nounwind sspstrong uwtable
define internal ptr @env_cpu(ptr noundef %env) #0 {
entry:
  %env.addr = alloca ptr, align 8
  store ptr %env, ptr %env.addr, align 8
  %0 = load ptr, ptr %env.addr, align 8
  %add.ptr = getelementptr i8, ptr %0, i64 -10176
  ret ptr %add.ptr
}

; Function Attrs: nounwind sspstrong uwtable
define internal i32 @open_self_cmdline(ptr noundef %cpu_env, i32 noundef %fd) #0 {
entry:
  %retval = alloca i32, align 4
  %cpu_env.addr = alloca ptr, align 8
  %fd.addr = alloca i32, align 4
  %cpu = alloca ptr, align 8
  %bprm = alloca ptr, align 8
  %i = alloca i32, align 4
  %len = alloca i64, align 8
  store ptr %cpu_env, ptr %cpu_env.addr, align 8
  store i32 %fd, ptr %fd.addr, align 4
  %0 = load ptr, ptr %cpu_env.addr, align 8
  %call = call ptr @env_cpu(ptr noundef %0)
  store ptr %call, ptr %cpu, align 8
  %1 = load ptr, ptr %cpu, align 8
  %opaque = getelementptr inbounds %struct.CPUState, ptr %1, i32 0, i32 39
  %2 = load ptr, ptr %opaque, align 16
  %bprm1 = getelementptr inbounds %struct.TaskState, ptr %2, i32 0, i32 8
  %3 = load ptr, ptr %bprm1, align 8
  store ptr %3, ptr %bprm, align 8
  store i32 0, ptr %i, align 4
  br label %for.cond

for.cond:                                         ; preds = %for.inc, %entry
  %4 = load i32, ptr %i, align 4
  %5 = load ptr, ptr %bprm, align 8
  %argc = getelementptr inbounds %struct.linux_binprm, ptr %5, i32 0, i32 5
  %6 = load i32, ptr %argc, align 16
  %cmp = icmp slt i32 %4, %6
  br i1 %cmp, label %for.body, label %for.end

for.body:                                         ; preds = %for.cond
  %7 = load ptr, ptr %bprm, align 8
  %argv = getelementptr inbounds %struct.linux_binprm, ptr %7, i32 0, i32 7
  %8 = load ptr, ptr %argv, align 8
  %9 = load i32, ptr %i, align 4
  %idxprom = sext i32 %9 to i64
  %arrayidx = getelementptr ptr, ptr %8, i64 %idxprom
  %10 = load ptr, ptr %arrayidx, align 8
  %call2 = call i64 @strlen(ptr noundef %10) #18
  %add = add i64 %call2, 1
  store i64 %add, ptr %len, align 8
  %11 = load i32, ptr %fd.addr, align 4
  %12 = load ptr, ptr %bprm, align 8
  %argv3 = getelementptr inbounds %struct.linux_binprm, ptr %12, i32 0, i32 7
  %13 = load ptr, ptr %argv3, align 8
  %14 = load i32, ptr %i, align 4
  %idxprom4 = sext i32 %14 to i64
  %arrayidx5 = getelementptr ptr, ptr %13, i64 %idxprom4
  %15 = load ptr, ptr %arrayidx5, align 8
  %16 = load i64, ptr %len, align 8
  %call6 = call i64 @write(i32 noundef %11, ptr noundef %15, i64 noundef %16)
  %17 = load i64, ptr %len, align 8
  %cmp7 = icmp ne i64 %call6, %17
  br i1 %cmp7, label %if.then, label %if.end

if.then:                                          ; preds = %for.body
  store i32 -1, ptr %retval, align 4
  br label %return

if.end:                                           ; preds = %for.body
  br label %for.inc

for.inc:                                          ; preds = %if.end
  %18 = load i32, ptr %i, align 4
  %inc = add i32 %18, 1
  store i32 %inc, ptr %i, align 4
  br label %for.cond, !llvm.loop !16

for.end:                                          ; preds = %for.cond
  store i32 0, ptr %retval, align 4
  br label %return

return:                                           ; preds = %for.end, %if.then
  %19 = load i32, ptr %retval, align 4
  ret i32 %19
}