; Function Attrs: nofree nounwind sspstrong uwtable
define internal range(i32 -1, 1) i32 @open_self_cmdline(ptr noundef readonly captures(none) %cpu_env, i32 noundef %fd) #8 {
entry:
  %opaque = getelementptr i8, ptr %cpu_env, i64 -9552
  %0 = load ptr, ptr %opaque, align 16
  %bprm1 = getelementptr inbounds nuw i8, ptr %0, i64 56
  %1 = load ptr, ptr %bprm1, align 8
  %argv = getelementptr inbounds nuw i8, ptr %1, i64 1064
  %argc = getelementptr inbounds nuw i8, ptr %1, i64 1056
  %2 = load i32, ptr %argc, align 16
  %cmp7 = icmp sgt i32 %2, 0
  br i1 %cmp7, label %for.body, label %return

for.cond:                                         ; preds = %for.body
  %indvars.iv.next = add nuw nsw i64 %indvars.iv, 1
  %3 = load i32, ptr %argc, align 16
  %4 = sext i32 %3 to i64
  %cmp = icmp slt i64 %indvars.iv.next, %4
  br i1 %cmp, label %for.body, label %return, !llvm.loop !16

for.body:                                         ; preds = %entry, %for.cond
  %indvars.iv = phi i64 [ %indvars.iv.next, %for.cond ], [ 0, %entry ]
  %5 = load ptr, ptr %argv, align 8
  %arrayidx = getelementptr ptr, ptr %5, i64 %indvars.iv
  %6 = load ptr, ptr %arrayidx, align 8
  %call2 = tail call i64 @strlen(ptr noundef nonnull dereferenceable(1) %6) #31
  %add = add i64 %call2, 1
  %call6 = tail call i64 @write(i32 noundef %fd, ptr noundef nonnull %6, i64 noundef %add) #27
  %cmp7.not = icmp eq i64 %call6, %add
  br i1 %cmp7.not, label %for.cond, label %return

return:                                           ; preds = %for.body, %for.cond, %entry
  %retval.0 = phi i32 [ 0, %entry ], [ 0, %for.cond ], [ -1, %for.body ]
  ret i32 %retval.0
}